; Function Attrs: mustprogress uwtable
define noundef nonnull align 8 dereferenceable(64) ptr @_ZNK6icu_776Locale18getDisplayLanguageERKS0_RNS_13UnicodeStringE(ptr noundef nonnull readonly align 8 captures(none) dereferenceable(217) %0, ptr noundef nonnull readonly align 8 captures(none) dereferenceable(217) %1, ptr noundef nonnull returned align 8 dereferenceable(64) %2) local_unnamed_addr #1 align 2 {
  %4 = alloca i32, align 4
  call void @llvm.lifetime.start.p0(i64 4, ptr nonnull %4) #14
  store i32 0, ptr %4, align 4, !tbaa !13
  %5 = tail call noundef ptr @_ZN6icu_7713UnicodeString9getBufferEi(ptr noundef nonnull align 8 dereferenceable(64) %2, i32 noundef 157)
  %6 = icmp eq ptr %5, null
  br i1 %6, label %7, label %21

7:                                                ; preds = %3
  %8 = getelementptr inbounds nuw i8, ptr %2, i64 8
  %9 = load i16, ptr %8, align 8, !tbaa !15
  %10 = and i16 %9, 1
  %.not27 = icmp eq i16 %10, 0
  br i1 %.not27, label %12, label %11

11:                                               ; preds = %7
  tail call void @_ZN6icu_7713UnicodeString7unBogusEv(ptr noundef nonnull align 8 dereferenceable(64) %2)
  br label %_ZN6icu_7713UnicodeString8truncateEi.exit

12:                                               ; preds = %7
  %13 = icmp slt i16 %9, 0
  %14 = ashr i16 %9, 5
  %15 = sext i16 %14 to i32
  %16 = getelementptr inbounds nuw i8, ptr %2, i64 12
  %17 = load i32, ptr %16, align 4
  %18 = select i1 %13, i32 %17, i32 %15
  %.not28 = icmp eq i32 %18, 0
  br i1 %.not28, label %_ZN6icu_7713UnicodeString8truncateEi.exit, label %19

19:                                               ; preds = %12
  %20 = and i16 %9, 30
  store i16 %20, ptr %8, align 8, !tbaa !15
  br label %_ZN6icu_7713UnicodeString8truncateEi.exit

21:                                               ; preds = %3
  %22 = getelementptr inbounds nuw i8, ptr %0, i64 40
  %23 = load ptr, ptr %22, align 8, !tbaa !16
  %24 = getelementptr inbounds nuw i8, ptr %1, i64 40
  %25 = load ptr, ptr %24, align 8, !tbaa !16
  %26 = getelementptr inbounds nuw i8, ptr %2, i64 8
  %27 = load i16, ptr %26, align 8, !tbaa !15
  %28 = and i16 %27, 2
  %.not.i = icmp eq i16 %28, 0
  %29 = getelementptr inbounds nuw i8, ptr %2, i64 16
  %30 = load i32, ptr %29, align 8
  %31 = select i1 %.not.i, i32 %30, i32 27
  %32 = call i32 @uloc_getDisplayLanguage_77(ptr noundef %23, ptr noundef %25, ptr noundef nonnull %5, i32 noundef %31, ptr noundef nonnull %4)
  %33 = load i32, ptr %4, align 4, !tbaa !13
  %34 = icmp sgt i32 %33, 0
  %35 = select i1 %34, i32 0, i32 %32
  call void @_ZN6icu_7713UnicodeString13releaseBufferEi(ptr noundef nonnull align 8 dereferenceable(64) %2, i32 noundef %35)
  %36 = load i32, ptr %4, align 4, !tbaa !13
  %37 = icmp eq i32 %36, 15
  br i1 %37, label %38, label %_ZN6icu_7713UnicodeString8truncateEi.exit

38:                                               ; preds = %21
  %39 = call noundef ptr @_ZN6icu_7713UnicodeString9getBufferEi(ptr noundef nonnull align 8 dereferenceable(64) %2, i32 noundef %32)
  %40 = icmp eq ptr %39, null
  br i1 %40, label %41, label %54

41:                                               ; preds = %38
  %42 = load i16, ptr %26, align 8, !tbaa !15
  %43 = and i16 %42, 1
  %.not = icmp eq i16 %43, 0
  br i1 %.not, label %45, label %44

44:                                               ; preds = %41
  call void @_ZN6icu_7713UnicodeString7unBogusEv(ptr noundef nonnull align 8 dereferenceable(64) %2)
  br label %_ZN6icu_7713UnicodeString8truncateEi.exit

45:                                               ; preds = %41
  %46 = icmp slt i16 %42, 0
  %47 = ashr i16 %42, 5
  %48 = sext i16 %47 to i32
  %49 = getelementptr inbounds nuw i8, ptr %2, i64 12
  %50 = load i32, ptr %49, align 4
  %51 = select i1 %46, i32 %50, i32 %48
  %.not26 = icmp eq i32 %51, 0
  br i1 %.not26, label %_ZN6icu_7713UnicodeString8truncateEi.exit, label %52

52:                                               ; preds = %45
  %53 = and i16 %42, 30
  store i16 %53, ptr %26, align 8, !tbaa !15
  br label %_ZN6icu_7713UnicodeString8truncateEi.exit

54:                                               ; preds = %38
  store i32 0, ptr %4, align 4, !tbaa !13
  %55 = load ptr, ptr %22, align 8, !tbaa !16
  %56 = load ptr, ptr %24, align 8, !tbaa !16
  %57 = load i16, ptr %26, align 8, !tbaa !15
  %58 = and i16 %57, 2
  %.not.i25 = icmp eq i16 %58, 0
  %59 = load i32, ptr %29, align 8
  %60 = select i1 %.not.i25, i32 %59, i32 27
  %61 = call i32 @uloc_getDisplayLanguage_77(ptr noundef %55, ptr noundef %56, ptr noundef nonnull %39, i32 noundef %60, ptr noundef nonnull %4)
  %62 = load i32, ptr %4, align 4, !tbaa !13
  %63 = icmp sgt i32 %62, 0
  %64 = select i1 %63, i32 0, i32 %61
  call void @_ZN6icu_7713UnicodeString13releaseBufferEi(ptr noundef nonnull align 8 dereferenceable(64) %2, i32 noundef %64)
  br label %_ZN6icu_7713UnicodeString8truncateEi.exit

_ZN6icu_7713UnicodeString8truncateEi.exit:        ; preds = %52, %45, %44, %19, %12, %11, %21, %54
  call void @llvm.lifetime.end.p0(i64 4, ptr nonnull %4) #14
  ret ptr %2
}